; Function Attrs: nounwind uwtable
define ptr @l_Lean_ParseImports_finishCommentBlock_eoi(ptr noundef %0) local_unnamed_addr #0 {
  %.val = load i32, ptr %0, align 4, !tbaa !4
  %2 = icmp eq i32 %.val, 1
  br i1 %2, label %3, label %16

3:                                                ; preds = %1
  %4 = getelementptr inbounds nuw i8, ptr %0, i64 24
  %5 = load ptr, ptr %4, align 8, !tbaa !10
  %6 = ptrtoint ptr %5 to i64
  %7 = and i64 %6, 1
  %.not38 = icmp eq i64 %7, 0
  br i1 %.not38, label %8, label %lean_dec.exit29

8:                                                ; preds = %3
  %9 = load i32, ptr %5, align 4, !tbaa !4
  %10 = icmp sgt i32 %9, 1
  br i1 %10, label %11, label %13, !prof !9

11:                                               ; preds = %8
  %12 = add nsw i32 %9, -1
  store i32 %12, ptr %5, align 4, !tbaa !4
  br label %lean_dec.exit29

13:                                               ; preds = %8
  %.not.i = icmp eq i32 %9, 0
  br i1 %.not.i, label %lean_dec.exit29, label %14

14:                                               ; preds = %13
  tail call void @lean_dec_ref_cold(ptr noundef nonnull %5) #6
  br label %lean_dec.exit29

lean_dec.exit29:                                  ; preds = %14, %13, %11, %3
  %15 = load ptr, ptr @l_Lean_ParseImports_finishCommentBlock_eoi___closed__2, align 8, !tbaa !10
  store ptr %15, ptr %4, align 8, !tbaa !10
  br label %63

16:                                               ; preds = %1
  %17 = getelementptr inbounds nuw i8, ptr %0, i64 8
  %18 = load ptr, ptr %17, align 8, !tbaa !10
  %19 = getelementptr inbounds nuw i8, ptr %0, i64 16
  %20 = load ptr, ptr %19, align 8, !tbaa !10
  %21 = getelementptr inbounds nuw i8, ptr %0, i64 32
  %22 = load i8, ptr %21, align 1, !tbaa !15
  %23 = getelementptr inbounds nuw i8, ptr %0, i64 33
  %24 = load i8, ptr %23, align 1, !tbaa !15
  %25 = getelementptr inbounds nuw i8, ptr %0, i64 34
  %26 = load i8, ptr %25, align 1, !tbaa !15
  %27 = ptrtoint ptr %20 to i64
  %28 = and i64 %27, 1
  %.not = icmp eq i64 %28, 0
  br i1 %.not, label %29, label %lean_inc.exit28

29:                                               ; preds = %16
  %.val.i = load i32, ptr %20, align 4, !tbaa !4
  %30 = icmp sgt i32 %.val.i, 0
  br i1 %30, label %31, label %33, !prof !9

31:                                               ; preds = %29
  %32 = add nuw i32 %.val.i, 1
  store i32 %32, ptr %20, align 4, !tbaa !4
  br label %lean_inc.exit28

33:                                               ; preds = %29
  %.not.i32 = icmp eq i32 %.val.i, 0
  br i1 %.not.i32, label %lean_inc.exit28, label %34

34:                                               ; preds = %33
  tail call void @lean_inc_ref_cold(ptr noundef nonnull %20) #6
  br label %lean_inc.exit28

lean_inc.exit28:                                  ; preds = %34, %33, %31, %16
  %35 = ptrtoint ptr %18 to i64
  %36 = and i64 %35, 1
  %.not36 = icmp eq i64 %36, 0
  br i1 %.not36, label %37, label %lean_inc.exit

37:                                               ; preds = %lean_inc.exit28
  %.val.i33 = load i32, ptr %18, align 4, !tbaa !4
  %38 = icmp sgt i32 %.val.i33, 0
  br i1 %38, label %39, label %41, !prof !9

39:                                               ; preds = %37
  %40 = add nuw i32 %.val.i33, 1
  store i32 %40, ptr %18, align 4, !tbaa !4
  br label %lean_inc.exit

41:                                               ; preds = %37
  %.not.i34 = icmp eq i32 %.val.i33, 0
  br i1 %.not.i34, label %lean_inc.exit, label %42

42:                                               ; preds = %41
  tail call void @lean_inc_ref_cold(ptr noundef nonnull %18) #6
  br label %lean_inc.exit

lean_inc.exit:                                    ; preds = %42, %41, %39, %lean_inc.exit28
  %43 = ptrtoint ptr %0 to i64
  %44 = and i64 %43, 1
  %.not37 = icmp eq i64 %44, 0
  br i1 %.not37, label %45, label %lean_dec.exit

45:                                               ; preds = %lean_inc.exit
  %46 = load i32, ptr %0, align 4, !tbaa !4
  %47 = icmp sgt i32 %46, 1
  br i1 %47, label %48, label %50, !prof !9

48:                                               ; preds = %45
  %49 = add nsw i32 %46, -1
  store i32 %49, ptr %0, align 4, !tbaa !4
  br label %lean_dec.exit

50:                                               ; preds = %45
  %.not.i30 = icmp eq i32 %46, 0
  br i1 %.not.i30, label %lean_dec.exit, label %51

51:                                               ; preds = %50
  tail call void @lean_dec_ref_cold(ptr noundef nonnull %0) #6
  br label %lean_dec.exit

lean_dec.exit:                                    ; preds = %51, %50, %48, %lean_inc.exit
  %52 = load ptr, ptr @l_Lean_ParseImports_finishCommentBlock_eoi___closed__2, align 8, !tbaa !10
  tail call void @lean_inc_heartbeat() #6
  %53 = tail call noalias ptr @mi_malloc_small(i64 noundef 40) #6
  %54 = icmp eq ptr %53, null
  br i1 %54, label %55, label %lean_alloc_ctor.exit

55:                                               ; preds = %lean_dec.exit
  tail call void @lean_internal_panic_out_of_memory() #7
  unreachable

lean_alloc_ctor.exit:                             ; preds = %lean_dec.exit
  %56 = getelementptr inbounds nuw i8, ptr %53, i64 4
  %57 = getelementptr inbounds nuw i8, ptr %53, i64 32
  store i64 0, ptr %57, align 8, !tbaa !16
  store i32 1, ptr %53, align 4, !tbaa !4
  store i32 196648, ptr %56, align 4
  %58 = getelementptr inbounds nuw i8, ptr %53, i64 8
  store ptr %18, ptr %58, align 8, !tbaa !10
  %59 = getelementptr inbounds nuw i8, ptr %53, i64 16
  store ptr %20, ptr %59, align 8, !tbaa !10
  %60 = getelementptr inbounds nuw i8, ptr %53, i64 24
  store ptr %52, ptr %60, align 8, !tbaa !10
  store i8 %22, ptr %57, align 1, !tbaa !15
  %61 = getelementptr inbounds nuw i8, ptr %53, i64 33
  store i8 %24, ptr %61, align 1, !tbaa !15
  %62 = getelementptr inbounds nuw i8, ptr %53, i64 34
  store i8 %26, ptr %62, align 1, !tbaa !15
  br label %63

63:                                               ; preds = %lean_alloc_ctor.exit, %lean_dec.exit29
  %.0 = phi ptr [ %0, %lean_dec.exit29 ], [ %53, %lean_alloc_ctor.exit ]
  ret ptr %.0
}